target datalayout = "e-m:e-p270:32:32-p271:32:32-p272:64:64-i64:64-i128:128-f80:128-n8:16:32:64-S128"
target triple = "x86_64-pc-linux-gnu"

%struct.AVRational = type { i32, i32 }
%struct.AVChannelLayout = type { i32, i32, %union.anon.0, ptr }
%union.anon.0 = type { i64 }
%struct.IpvideoContext = type { ptr, %struct.HpelDSPContext, ptr, ptr, ptr, ptr, ptr, i32, ptr, i32, i32, %struct.GetByteContext, %struct.GetByteContext, ptr, i32, i32, i32, [256 x i32] }
%struct.HpelDSPContext = type { [4 x [4 x ptr]], [4 x [4 x ptr]], [4 x [4 x ptr]], [4 x ptr] }
%struct.GetByteContext = type { ptr, ptr, ptr }
%struct.AVFrame = type { [8 x ptr], [8 x i32], ptr, i32, i32, i32, i32, i32, %struct.AVRational, i64, i64, %struct.AVRational, i32, ptr, i32, i32, [8 x ptr], ptr, i32, ptr, i32, i32, i32, i32, i32, i32, i32, i64, ptr, i32, ptr, ptr, i64, i64, i64, i64, ptr, %struct.AVChannelLayout, i64 }

@.str.16 = private unnamed_addr constant [24 x i8] c"motion offset < 0 (%d)\0A\00", align 1
@.str.17 = private unnamed_addr constant [38 x i8] c"motion offset above limit (%d >= %d)\0A\00", align 1
@.str.18 = private unnamed_addr constant [40 x i8] c"Invalid decode type, corrupted header?\0A\00", align 1

; Function Attrs: nounwind uwtable
define internal i32 @copy_from(ptr noundef %0, ptr noundef %1, ptr noundef %2, i32 noundef %3, i32 noundef %4) #1 {
  %6 = alloca i32, align 4
  %7 = alloca ptr, align 8
  %8 = alloca ptr, align 8
  %9 = alloca ptr, align 8
  %10 = alloca i32, align 4
  %11 = alloca i32, align 4
  %12 = alloca i32, align 4
  %13 = alloca i32, align 4
  %14 = alloca i32, align 4
  %15 = alloca i32, align 4
  %16 = alloca i32, align 4
  %17 = alloca i32, align 4
  %18 = alloca i32, align 4
  %19 = alloca i32, align 4
  store ptr %0, ptr %7, align 8, !tbaa !29
  store ptr %1, ptr %8, align 8, !tbaa !53
  store ptr %2, ptr %9, align 8, !tbaa !53
  store i32 %3, ptr %10, align 4, !tbaa !61
  store i32 %4, ptr %11, align 4, !tbaa !61
  call void @llvm.lifetime.start.p0(i64 4, ptr %12) #11
  %20 = load ptr, ptr %9, align 8, !tbaa !53
  %21 = getelementptr inbounds nuw %struct.AVFrame, ptr %20, i32 0, i32 3
  %22 = load i32, ptr %21, align 8, !tbaa !45
  store i32 %22, ptr %12, align 4, !tbaa !61
  call void @llvm.lifetime.start.p0(i64 4, ptr %13) #11
  %23 = load ptr, ptr %7, align 8, !tbaa !29
  %24 = getelementptr inbounds nuw %struct.IpvideoContext, ptr %23, i32 0, i32 13
  %25 = load ptr, ptr %24, align 8, !tbaa !77
  %26 = load ptr, ptr %9, align 8, !tbaa !53
  %27 = getelementptr inbounds nuw %struct.AVFrame, ptr %26, i32 0, i32 0
  %28 = getelementptr inbounds [8 x ptr], ptr %27, i64 0, i64 0
  %29 = load ptr, ptr %28, align 8, !tbaa !59
  %30 = ptrtoint ptr %25 to i64
  %31 = ptrtoint ptr %29 to i64
  %32 = sub i64 %30, %31
  %33 = trunc i64 %32 to i32
  store i32 %33, ptr %13, align 4, !tbaa !61
  call void @llvm.lifetime.start.p0(i64 4, ptr %14) #11
  %34 = load i32, ptr %13, align 4, !tbaa !61
  %35 = load ptr, ptr %9, align 8, !tbaa !53
  %36 = getelementptr inbounds nuw %struct.AVFrame, ptr %35, i32 0, i32 1
  %37 = getelementptr inbounds [8 x i32], ptr %36, i64 0, i64 0
  %38 = load i32, ptr %37, align 8, !tbaa !61
  %39 = srem i32 %34, %38
  %40 = load ptr, ptr %7, align 8, !tbaa !29
  %41 = getelementptr inbounds nuw %struct.IpvideoContext, ptr %40, i32 0, i32 10
  %42 = load i32, ptr %41, align 4, !tbaa !37
  %43 = add nsw i32 1, %42
  %44 = sdiv i32 %39, %43
  store i32 %44, ptr %14, align 4, !tbaa !61
  call void @llvm.lifetime.start.p0(i64 4, ptr %15) #11
  %45 = load i32, ptr %13, align 4, !tbaa !61
  %46 = load ptr, ptr %9, align 8, !tbaa !53
  %47 = getelementptr inbounds nuw %struct.AVFrame, ptr %46, i32 0, i32 1
  %48 = getelementptr inbounds [8 x i32], ptr %47, i64 0, i64 0
  %49 = load i32, ptr %48, align 8, !tbaa !61
  %50 = sdiv i32 %45, %49
  store i32 %50, ptr %15, align 4, !tbaa !61
  call void @llvm.lifetime.start.p0(i64 4, ptr %16) #11
  %51 = load i32, ptr %10, align 4, !tbaa !61
  %52 = load i32, ptr %14, align 4, !tbaa !61
  %53 = add nsw i32 %51, %52
  %54 = load i32, ptr %10, align 4, !tbaa !61
  %55 = load i32, ptr %14, align 4, !tbaa !61
  %56 = add nsw i32 %54, %55
  %57 = load i32, ptr %12, align 4, !tbaa !61
  %58 = icmp sge i32 %56, %57
  %59 = zext i1 %58 to i32
  %60 = load i32, ptr %10, align 4, !tbaa !61
  %61 = load i32, ptr %14, align 4, !tbaa !61
  %62 = add nsw i32 %60, %61
  %63 = icmp slt i32 %62, 0
  %64 = zext i1 %63 to i32
  %65 = sub nsw i32 %59, %64
  %66 = load i32, ptr %12, align 4, !tbaa !61
  %67 = mul nsw i32 %65, %66
  %68 = sub nsw i32 %53, %67
  store i32 %68, ptr %16, align 4, !tbaa !61
  call void @llvm.lifetime.start.p0(i64 4, ptr %17) #11
  %69 = load i32, ptr %11, align 4, !tbaa !61
  %70 = load i32, ptr %15, align 4, !tbaa !61
  %71 = add nsw i32 %69, %70
  %72 = load i32, ptr %10, align 4, !tbaa !61
  %73 = load i32, ptr %14, align 4, !tbaa !61
  %74 = add nsw i32 %72, %73
  %75 = load i32, ptr %12, align 4, !tbaa !61
  %76 = icmp sge i32 %74, %75
  %77 = zext i1 %76 to i32
  %78 = add nsw i32 %71, %77
  %79 = load i32, ptr %10, align 4, !tbaa !61
  %80 = load i32, ptr %14, align 4, !tbaa !61
  %81 = add nsw i32 %79, %80
  %82 = icmp slt i32 %81, 0
  %83 = zext i1 %82 to i32
  %84 = sub nsw i32 %78, %83
  store i32 %84, ptr %17, align 4, !tbaa !61
  call void @llvm.lifetime.start.p0(i64 4, ptr %18) #11
  %85 = load i32, ptr %17, align 4, !tbaa !61
  %86 = load ptr, ptr %8, align 8, !tbaa !53
  %87 = getelementptr inbounds nuw %struct.AVFrame, ptr %86, i32 0, i32 1
  %88 = getelementptr inbounds [8 x i32], ptr %87, i64 0, i64 0
  %89 = load i32, ptr %88, align 8, !tbaa !61
  %90 = mul nsw i32 %85, %89
  %91 = load i32, ptr %16, align 4, !tbaa !61
  %92 = load ptr, ptr %7, align 8, !tbaa !29
  %93 = getelementptr inbounds nuw %struct.IpvideoContext, ptr %92, i32 0, i32 10
  %94 = load i32, ptr %93, align 4, !tbaa !37
  %95 = add nsw i32 1, %94
  %96 = mul nsw i32 %91, %95
  %97 = add nsw i32 %90, %96
  store i32 %97, ptr %18, align 4, !tbaa !61
  %98 = load i32, ptr %18, align 4, !tbaa !61
  %99 = icmp slt i32 %98, 0
  br i1 %99, label %100, label %105

100:                                              ; preds = %5
  %101 = load ptr, ptr %7, align 8, !tbaa !29
  %102 = getelementptr inbounds nuw %struct.IpvideoContext, ptr %101, i32 0, i32 0
  %103 = load ptr, ptr %102, align 8, !tbaa !31
  %104 = load i32, ptr %18, align 4, !tbaa !61
  call void (ptr, i32, ptr, ...) @av_log(ptr noundef %103, i32 noundef 16, ptr noundef @.str.16, i32 noundef %104)
  store i32 -1094995529, ptr %6, align 4
  store i32 1, ptr %19, align 4
  br label %159

105:                                              ; preds = %5
  %106 = load i32, ptr %18, align 4, !tbaa !61
  %107 = load ptr, ptr %7, align 8, !tbaa !29
  %108 = getelementptr inbounds nuw %struct.IpvideoContext, ptr %107, i32 0, i32 16
  %109 = load i32, ptr %108, align 8, !tbaa !74
  %110 = icmp sgt i32 %106, %109
  br i1 %110, label %111, label %119

111:                                              ; preds = %105
  %112 = load ptr, ptr %7, align 8, !tbaa !29
  %113 = getelementptr inbounds nuw %struct.IpvideoContext, ptr %112, i32 0, i32 0
  %114 = load ptr, ptr %113, align 8, !tbaa !31
  %115 = load i32, ptr %18, align 4, !tbaa !61
  %116 = load ptr, ptr %7, align 8, !tbaa !29
  %117 = getelementptr inbounds nuw %struct.IpvideoContext, ptr %116, i32 0, i32 16
  %118 = load i32, ptr %117, align 8, !tbaa !74
  call void (ptr, i32, ptr, ...) @av_log(ptr noundef %114, i32 noundef 16, ptr noundef @.str.17, i32 noundef %115, i32 noundef %118)
  store i32 -1094995529, ptr %6, align 4
  store i32 1, ptr %19, align 4
  br label %159

119:                                              ; preds = %105
  br label %120

120:                                              ; preds = %119
  %121 = load ptr, ptr %8, align 8, !tbaa !53
  %122 = getelementptr inbounds nuw %struct.AVFrame, ptr %121, i32 0, i32 0
  %123 = getelementptr inbounds [8 x ptr], ptr %122, i64 0, i64 0
  %124 = load ptr, ptr %123, align 8, !tbaa !59
  %125 = icmp ne ptr %124, null
  br i1 %125, label %130, label %126

126:                                              ; preds = %120
  %127 = load ptr, ptr %7, align 8, !tbaa !29
  %128 = getelementptr inbounds nuw %struct.IpvideoContext, ptr %127, i32 0, i32 0
  %129 = load ptr, ptr %128, align 8, !tbaa !31
  call void (ptr, i32, ptr, ...) @av_log(ptr noundef %129, i32 noundef 16, ptr noundef @.str.18)
  store i32 -22, ptr %6, align 4
  store i32 1, ptr %19, align 4
  br label %159

130:                                              ; preds = %120
  %131 = load ptr, ptr %7, align 8, !tbaa !29
  %132 = getelementptr inbounds nuw %struct.IpvideoContext, ptr %131, i32 0, i32 1
  %133 = getelementptr inbounds nuw %struct.HpelDSPContext, ptr %132, i32 0, i32 0
  %134 = load ptr, ptr %7, align 8, !tbaa !29
  %135 = getelementptr inbounds nuw %struct.IpvideoContext, ptr %134, i32 0, i32 10
  %136 = load i32, ptr %135, align 4, !tbaa !37
  %137 = icmp ne i32 %136, 0
  %138 = xor i1 %137, true
  %139 = zext i1 %138 to i32
  %140 = sext i32 %139 to i64
  %141 = getelementptr inbounds [4 x [4 x ptr]], ptr %133, i64 0, i64 %140
  %142 = getelementptr inbounds [4 x ptr], ptr %141, i64 0, i64 0
  %143 = load ptr, ptr %142, align 8, !tbaa !78
  %144 = load ptr, ptr %7, align 8, !tbaa !29
  %145 = getelementptr inbounds nuw %struct.IpvideoContext, ptr %144, i32 0, i32 13
  %146 = load ptr, ptr %145, align 8, !tbaa !77
  %147 = load ptr, ptr %8, align 8, !tbaa !53
  %148 = getelementptr inbounds nuw %struct.AVFrame, ptr %147, i32 0, i32 0
  %149 = getelementptr inbounds [8 x ptr], ptr %148, i64 0, i64 0
  %150 = load ptr, ptr %149, align 8, !tbaa !59
  %151 = load i32, ptr %18, align 4, !tbaa !61
  %152 = sext i32 %151 to i64
  %153 = getelementptr inbounds i8, ptr %150, i64 %152
  %154 = load ptr, ptr %9, align 8, !tbaa !53
  %155 = getelementptr inbounds nuw %struct.AVFrame, ptr %154, i32 0, i32 1
  %156 = getelementptr inbounds [8 x i32], ptr %155, i64 0, i64 0
  %157 = load i32, ptr %156, align 8, !tbaa !61
  %158 = sext i32 %157 to i64
  call void %143(ptr noundef %146, ptr noundef %153, i64 noundef %158, i32 noundef 8)
  store i32 0, ptr %6, align 4
  store i32 1, ptr %19, align 4
  br label %159

159:                                              ; preds = %130, %126, %111, %100
  call void @llvm.lifetime.end.p0(i64 4, ptr %18) #11
  call void @llvm.lifetime.end.p0(i64 4, ptr %17) #11
  call void @llvm.lifetime.end.p0(i64 4, ptr %16) #11
  call void @llvm.lifetime.end.p0(i64 4, ptr %15) #11
  call void @llvm.lifetime.end.p0(i64 4, ptr %14) #11
  call void @llvm.lifetime.end.p0(i64 4, ptr %13) #11
  call void @llvm.lifetime.end.p0(i64 4, ptr %12) #11
  %160 = load i32, ptr %6, align 4
  ret i32 %160
}