; Function Attrs: nounwind uwtable
define internal fastcc range(i32 -1094995529, 1) i32 @copy_from(ptr noundef readonly captures(none) %0, ptr noundef readonly captures(none) %1, ptr noundef readonly captures(none) %2, i32 noundef range(i32 -49152, 49152) %3, i32 noundef range(i32 -306783378, 306783379) %4) unnamed_addr #1 {
  %6 = getelementptr inbounds nuw i8, ptr %2, i64 104
  %7 = load i32, ptr %6, align 8, !tbaa !42
  %8 = getelementptr inbounds nuw i8, ptr %0, i64 536
  %9 = load ptr, ptr %8, align 8, !tbaa !67
  %10 = load ptr, ptr %2, align 8, !tbaa !53
  %11 = ptrtoint ptr %9 to i64
  %12 = ptrtoint ptr %10 to i64
  %13 = sub i64 %11, %12
  %14 = trunc i64 %13 to i32
  %15 = getelementptr inbounds nuw i8, ptr %2, i64 64
  %16 = load i32, ptr %15, align 8, !tbaa !62
  %17 = srem i32 %14, %16
  %18 = getelementptr inbounds nuw i8, ptr %0, i64 484
  %19 = load i32, ptr %18, align 4, !tbaa !34
  %20 = add nsw i32 %19, 1
  %21 = sdiv i32 %17, %20
  %22 = sdiv i32 %14, %16
  %23 = add nsw i32 %21, %3
  %24 = icmp sge i32 %23, %7
  %25 = zext i1 %24 to i32
  %.lobit.neg48 = ashr i32 %23, 31
  %.lobit = lshr i32 %23, 31
  %.neg = sub nsw i32 %.lobit, %25
  %.neg46 = mul i32 %.neg, %7
  %26 = add i32 %.neg46, %23
  %27 = add nsw i32 %22, %4
  %28 = add i32 %27, %.lobit.neg48
  %29 = add i32 %28, %25
  %30 = getelementptr inbounds nuw i8, ptr %1, i64 64
  %31 = load i32, ptr %30, align 8, !tbaa !62
  %32 = mul nsw i32 %29, %31
  %33 = mul nsw i32 %26, %20
  %34 = add nsw i32 %33, %32
  %35 = icmp slt i32 %34, 0
  br i1 %35, label %36, label %38

36:                                               ; preds = %5
  %37 = load ptr, ptr %0, align 8, !tbaa !27
  tail call void (ptr, i32, ptr, ...) @av_log(ptr noundef %37, i32 noundef 16, ptr noundef nonnull @.str.16, i32 noundef %34) #9
  br label %56

38:                                               ; preds = %5
  %39 = getelementptr inbounds nuw i8, ptr %0, i64 552
  %40 = load i32, ptr %39, align 8, !tbaa !65
  %41 = icmp sgt i32 %34, %40
  br i1 %41, label %42, label %44

42:                                               ; preds = %38
  %43 = load ptr, ptr %0, align 8, !tbaa !27
  tail call void (ptr, i32, ptr, ...) @av_log(ptr noundef %43, i32 noundef 16, ptr noundef nonnull @.str.17, i32 noundef %34, i32 noundef %40) #9
  br label %56

44:                                               ; preds = %38
  %45 = load ptr, ptr %1, align 8, !tbaa !53
  %.not = icmp eq ptr %45, null
  br i1 %.not, label %46, label %48

46:                                               ; preds = %44
  %47 = load ptr, ptr %0, align 8, !tbaa !27
  tail call void (ptr, i32, ptr, ...) @av_log(ptr noundef %47, i32 noundef 16, ptr noundef nonnull @.str.18) #9
  br label %56

48:                                               ; preds = %44
  %49 = getelementptr inbounds nuw i8, ptr %0, i64 8
  %.not47 = icmp eq i32 %19, 0
  %50 = zext i1 %.not47 to i64
  %51 = getelementptr inbounds nuw [4 x [4 x ptr]], ptr %49, i64 0, i64 %50
  %52 = load ptr, ptr %51, align 8, !tbaa !66
  %53 = zext nneg i32 %34 to i64
  %54 = getelementptr inbounds nuw i8, ptr %45, i64 %53
  %55 = sext i32 %16 to i64
  tail call void %52(ptr noundef %9, ptr noundef nonnull %54, i64 noundef %55, i32 noundef 8) #9
  br label %56

56:                                               ; preds = %48, %46, %42, %36
  %.0 = phi i32 [ -1094995529, %36 ], [ -1094995529, %42 ], [ 0, %48 ], [ -22, %46 ]
  ret i32 %.0
}